; Function Attrs: mustprogress uwtable
define internal void @"_ZN4LuauL8fnVisitVIZNS_16toStringDetailedEPKNS_11TypePackVarERNS_15ToStringOptionsEE3$_0KNS_11BlockedTypeEEEvRT_PNSt11conditionalIXsr3stdE10is_const_vIT0_EEKvvE4typeE"(ptr noundef nonnull readonly align 8 captures(none) dereferenceable(16) %0, ptr noundef readonly captures(none) %1) #6 {
  %3 = alloca %"struct.Luau::BlockedType", align 8
  %.sroa.0.0.copyload = load i32, ptr %1, align 8, !tbaa !4
  %.sroa.21.0..sroa_idx = getelementptr inbounds nuw i8, ptr %1, i64 8
  %.sroa.21.0.copyload = load ptr, ptr %.sroa.21.0..sroa_idx, align 8, !tbaa !653
  %.val = load ptr, ptr %0, align 8, !tbaa !652
  %4 = getelementptr inbounds nuw i8, ptr %0, i64 8
  %.val3 = load ptr, ptr %4, align 8, !tbaa !250
  call void @llvm.lifetime.start.p0(i64 16, ptr nonnull %3)
  store i32 %.sroa.0.0.copyload, ptr %3, align 8
  %5 = getelementptr inbounds nuw i8, ptr %3, i64 8
  store ptr %.sroa.21.0.copyload, ptr %5, align 8
  call void @_ZN4Luau15TypeStringifierclEPKNS_4TypeERKNS_11BlockedTypeE(ptr noundef nonnull align 8 dereferenceable(8) %.val, ptr noundef %.val3, ptr noundef nonnull align 8 dereferenceable(16) %3)
  call void @llvm.lifetime.end.p0(i64 16, ptr nonnull %3)
  ret void
}